; Function Attrs: mustprogress uwtable
define void @_ZNK5faiss15LinearTransform17reverse_transformElPKfPf(ptr noundef nonnull readonly align 8 captures(none) dereferenceable(73) %0, i64 noundef %1, ptr noundef %2, ptr noundef %3) unnamed_addr #3 align 2 personality ptr @__gxx_personality_v0 {
  %5 = alloca %"class.std::__cxx11::basic_string", align 8
  %6 = alloca %"class.std::allocator", align 1
  %7 = getelementptr inbounds nuw i8, ptr %0, i64 18
  %8 = load i8, ptr %7, align 2, !tbaa !39, !range !20, !noundef !21
  %9 = trunc nuw i8 %8 to i1
  br i1 %9, label %10, label %11

10:                                               ; preds = %4
  tail call void @_ZNK5faiss15LinearTransform19transform_transposeElPKfPf(ptr noundef nonnull align 8 dereferenceable(73) %0, i64 noundef %1, ptr noundef %2, ptr noundef %3)
  ret void

11:                                               ; preds = %4
  %12 = tail call ptr @__cxa_allocate_exception(i64 40) #28
  call void @llvm.lifetime.start.p0(i64 32, ptr nonnull %5) #28
  call void @llvm.lifetime.start.p0(i64 1, ptr nonnull %6) #28
  invoke void @_ZNSt7__cxx1112basic_stringIcSt11char_traitsIcESaIcEEC2IS3_EEPKcRKS3_(ptr noundef nonnull align 8 dereferenceable(32) %5, ptr noundef nonnull @.str.17, ptr noundef nonnull align 1 dereferenceable(1) %6)
          to label %13 unwind label %_ZNSt7__cxx1112basic_stringIcSt11char_traitsIcESaIcEED2Ev.exit.thread

13:                                               ; preds = %11
  invoke void @_ZN5faiss14FaissExceptionC1ERKNSt7__cxx1112basic_stringIcSt11char_traitsIcESaIcEEEPKcSA_i(ptr noundef nonnull align 8 dereferenceable(40) %12, ptr noundef nonnull align 8 dereferenceable(32) %5, ptr noundef nonnull @__PRETTY_FUNCTION__._ZNK5faiss15LinearTransform17reverse_transformElPKfPf, ptr noundef nonnull @.str.1, i32 noundef 292)
          to label %14 unwind label %16

14:                                               ; preds = %13
  invoke void @__cxa_throw(ptr nonnull %12, ptr nonnull @_ZTIN5faiss14FaissExceptionE, ptr nonnull @_ZN5faiss14FaissExceptionD2Ev) #29
          to label %28 unwind label %16

_ZNSt7__cxx1112basic_stringIcSt11char_traitsIcESaIcEED2Ev.exit.thread: ; preds = %11
  %15 = landingpad { ptr, i32 }
          cleanup
  call void @llvm.lifetime.end.p0(i64 1, ptr nonnull %6) #28
  call void @llvm.lifetime.end.p0(i64 32, ptr nonnull %5) #28
  br label %26

16:                                               ; preds = %14, %13
  %.0 = phi i1 [ false, %14 ], [ true, %13 ]
  %17 = landingpad { ptr, i32 }
          cleanup
  %18 = load ptr, ptr %5, align 8, !tbaa !12
  %19 = getelementptr inbounds nuw i8, ptr %5, i64 16
  %20 = icmp eq ptr %18, %19
  br i1 %20, label %_ZNKSt7__cxx1112basic_stringIcSt11char_traitsIcESaIcEE11_M_is_localEv.exit.thread.i.i, label %_ZNSt7__cxx1112basic_stringIcSt11char_traitsIcESaIcEED2Ev.exit

_ZNKSt7__cxx1112basic_stringIcSt11char_traitsIcESaIcEE11_M_is_localEv.exit.thread.i.i: ; preds = %16
  %21 = getelementptr inbounds nuw i8, ptr %5, i64 8
  %22 = load i64, ptr %21, align 8, !tbaa !15
  %23 = icmp ult i64 %22, 16
  call void @llvm.assume(i1 %23)
  call void @llvm.lifetime.end.p0(i64 1, ptr nonnull %6) #28
  call void @llvm.lifetime.end.p0(i64 32, ptr nonnull %5) #28
  br i1 %.0, label %26, label %27

_ZNSt7__cxx1112basic_stringIcSt11char_traitsIcESaIcEED2Ev.exit: ; preds = %16
  %24 = load i64, ptr %19, align 8, !tbaa !14
  %25 = add i64 %24, 1
  call void @_ZdlPvm(ptr noundef %18, i64 noundef %25) #30
  call void @llvm.lifetime.end.p0(i64 1, ptr nonnull %6) #28
  call void @llvm.lifetime.end.p0(i64 32, ptr nonnull %5) #28
  br i1 %.0, label %26, label %27

26:                                               ; preds = %_ZNKSt7__cxx1112basic_stringIcSt11char_traitsIcESaIcEE11_M_is_localEv.exit.thread.i.i, %_ZNSt7__cxx1112basic_stringIcSt11char_traitsIcESaIcEED2Ev.exit.thread, %_ZNSt7__cxx1112basic_stringIcSt11char_traitsIcESaIcEED2Ev.exit
  %.pn12 = phi { ptr, i32 } [ %15, %_ZNSt7__cxx1112basic_stringIcSt11char_traitsIcESaIcEED2Ev.exit.thread ], [ %17, %_ZNSt7__cxx1112basic_stringIcSt11char_traitsIcESaIcEED2Ev.exit ], [ %17, %_ZNKSt7__cxx1112basic_stringIcSt11char_traitsIcESaIcEE11_M_is_localEv.exit.thread.i.i ]
  call void @__cxa_free_exception(ptr %12) #28
  br label %27

27:                                               ; preds = %_ZNKSt7__cxx1112basic_stringIcSt11char_traitsIcESaIcEE11_M_is_localEv.exit.thread.i.i, %_ZNSt7__cxx1112basic_stringIcSt11char_traitsIcESaIcEED2Ev.exit, %26
  %.pn11 = phi { ptr, i32 } [ %17, %_ZNSt7__cxx1112basic_stringIcSt11char_traitsIcESaIcEED2Ev.exit ], [ %.pn12, %26 ], [ %17, %_ZNKSt7__cxx1112basic_stringIcSt11char_traitsIcESaIcEE11_M_is_localEv.exit.thread.i.i ]
  resume { ptr, i32 } %.pn11

28:                                               ; preds = %14
  unreachable
}